; Function Attrs: mustprogress uwtable
define internal void @_ZN2cvL15resizeAreaFast_ItfNS_17ResizeAreaFastVecItNS_19ResizeAreaFastNoVecIttEEEEEEvRKNS_3MatERS5_PKiSA_ii(ptr noundef nonnull align 8 dereferenceable(96) %0, ptr noundef nonnull align 8 dereferenceable(96) %1, ptr noundef %2, ptr noundef %3, i32 noundef %4, i32 noundef %5) #4 personality ptr @__gxx_personality_v0 {
  %7 = alloca %"class.cv::Range", align 4
  %8 = alloca %"class.cv::resizeAreaFast_Invoker.62", align 8
  call void @llvm.lifetime.start.p0(i64 8, ptr nonnull %7) #21
  %9 = getelementptr inbounds nuw i8, ptr %1, i64 8
  %10 = load i32, ptr %9, align 8, !tbaa !83
  store i32 0, ptr %7, align 4, !tbaa !31
  %11 = getelementptr inbounds nuw i8, ptr %7, i64 4
  store i32 %10, ptr %11, align 4, !tbaa !33
  call void @llvm.lifetime.start.p0(i64 224, ptr nonnull %8) #21
  store ptr getelementptr inbounds nuw inrange(-16, 24) (i8, ptr @_ZTVN2cv22resizeAreaFast_InvokerItfNS_17ResizeAreaFastVecItNS_19ResizeAreaFastNoVecIttEEEEEE, i64 16), ptr %8, align 8, !tbaa !34
  %12 = getelementptr inbounds nuw i8, ptr %8, i64 8
  invoke void @_ZN2cv3MatC1ERKS0_(ptr noundef nonnull align 8 dereferenceable(96) %12, ptr noundef nonnull align 8 dereferenceable(96) %0)
          to label %13 unwind label %15

13:                                               ; preds = %6
  %14 = getelementptr inbounds nuw i8, ptr %8, i64 104
  invoke void @_ZN2cv3MatC1ERKS0_(ptr noundef nonnull align 8 dereferenceable(96) %14, ptr noundef nonnull align 8 dereferenceable(96) %1)
          to label %_ZN2cv22resizeAreaFast_InvokerItfNS_17ResizeAreaFastVecItNS_19ResizeAreaFastNoVecIttEEEEEC2ERKNS_3MatERS6_iiPKiSB_.exit unwind label %17

15:                                               ; preds = %6
  %16 = landingpad { ptr, i32 }
          cleanup
  br label %19

17:                                               ; preds = %13
  %18 = landingpad { ptr, i32 }
          cleanup
  call void @_ZN2cv3MatD1Ev(ptr noundef nonnull align 8 dereferenceable(96) %12) #21
  br label %19

common.resume:                                    ; preds = %29, %19
  %common.resume.op = phi { ptr, i32 } [ %.pn.i, %19 ], [ %30, %29 ]
  resume { ptr, i32 } %common.resume.op

19:                                               ; preds = %17, %15
  %.pn.i = phi { ptr, i32 } [ %18, %17 ], [ %16, %15 ]
  call void @_ZN2cv16ParallelLoopBodyD2Ev(ptr noundef nonnull align 8 dereferenceable(224) %8) #21
  br label %common.resume

_ZN2cv22resizeAreaFast_InvokerItfNS_17ResizeAreaFastVecItNS_19ResizeAreaFastNoVecIttEEEEEC2ERKNS_3MatERS6_iiPKiSB_.exit: ; preds = %13
  %20 = getelementptr inbounds nuw i8, ptr %8, i64 200
  store i32 %4, ptr %20, align 8, !tbaa !89
  %21 = getelementptr inbounds nuw i8, ptr %8, i64 204
  store i32 %5, ptr %21, align 4, !tbaa !91
  %22 = getelementptr inbounds nuw i8, ptr %8, i64 208
  store ptr %2, ptr %22, align 8, !tbaa !92
  %23 = getelementptr inbounds nuw i8, ptr %8, i64 216
  store ptr %3, ptr %23, align 8, !tbaa !93
  %24 = invoke noundef i64 @_ZNK2cv3Mat5totalEv(ptr noundef nonnull align 8 dereferenceable(96) %1)
          to label %25 unwind label %29

25:                                               ; preds = %_ZN2cv22resizeAreaFast_InvokerItfNS_17ResizeAreaFastVecItNS_19ResizeAreaFastNoVecIttEEEEEC2ERKNS_3MatERS6_iiPKiSB_.exit
  %26 = uitofp i64 %24 to double
  %27 = fmul double %26, 0x3EF0000000000000
  invoke void @_ZN2cv13parallel_for_ERKNS_5RangeERKNS_16ParallelLoopBodyEd(ptr noundef nonnull align 4 dereferenceable(8) %7, ptr noundef nonnull align 8 dereferenceable(8) %8, double noundef %27)
          to label %28 unwind label %29

28:                                               ; preds = %25
  store ptr getelementptr inbounds nuw inrange(-16, 24) (i8, ptr @_ZTVN2cv22resizeAreaFast_InvokerItfNS_17ResizeAreaFastVecItNS_19ResizeAreaFastNoVecIttEEEEEE, i64 16), ptr %8, align 8, !tbaa !34
  call void @_ZN2cv3MatD1Ev(ptr noundef nonnull align 8 dereferenceable(96) %14) #21
  call void @_ZN2cv3MatD1Ev(ptr noundef nonnull align 8 dereferenceable(96) %12) #21
  call void @_ZN2cv16ParallelLoopBodyD2Ev(ptr noundef nonnull align 8 dereferenceable(224) %8) #21
  call void @llvm.lifetime.end.p0(i64 224, ptr nonnull %8) #21
  call void @llvm.lifetime.end.p0(i64 8, ptr nonnull %7) #21
  ret void

29:                                               ; preds = %25, %_ZN2cv22resizeAreaFast_InvokerItfNS_17ResizeAreaFastVecItNS_19ResizeAreaFastNoVecIttEEEEEC2ERKNS_3MatERS6_iiPKiSB_.exit
  %30 = landingpad { ptr, i32 }
          cleanup
  call void @_ZN2cv22resizeAreaFast_InvokerItfNS_17ResizeAreaFastVecItNS_19ResizeAreaFastNoVecIttEEEEED2Ev(ptr noundef nonnull align 8 dereferenceable(224) %8) #21
  call void @llvm.lifetime.end.p0(i64 224, ptr nonnull %8) #21
  call void @llvm.lifetime.end.p0(i64 8, ptr nonnull %7) #21
  br label %common.resume
}